target datalayout = "e-m:e-p270:32:32-p271:32:32-p272:64:64-i64:64-i128:128-f80:128-n8:16:32:64-S128"
target triple = "x86_64-pc-linux-gnu"

%struct.Qureg = type { i32, i32, i32, i64, i64, i32, i32, %struct.ComplexArray, %struct.ComplexArray, %struct.ComplexArray, ptr, ptr, ptr, ptr, ptr, ptr }
%struct.ComplexArray = type { ptr, ptr }

@__func__.applyMultiVarPhaseFunc = private unnamed_addr constant [23 x i8] c"applyMultiVarPhaseFunc\00", align 1

; Function Attrs: nounwind uwtable
define void @applyMultiVarPhaseFunc(ptr noundef byval(%struct.Qureg) align 8 %0, ptr noundef %1, ptr noundef %2, i32 noundef %3, i32 noundef %4, ptr noundef %5, ptr noundef %6, ptr noundef %7) #0 {
  %9 = alloca ptr, align 8
  %10 = alloca ptr, align 8
  %11 = alloca i32, align 4
  %12 = alloca i32, align 4
  %13 = alloca ptr, align 8
  %14 = alloca ptr, align 8
  %15 = alloca ptr, align 8
  %16 = alloca i32, align 4
  store ptr %1, ptr %9, align 8, !tbaa !27
  store ptr %2, ptr %10, align 8, !tbaa !27
  store i32 %3, ptr %11, align 4, !tbaa !4
  store i32 %4, ptr %12, align 4, !tbaa !4
  store ptr %5, ptr %13, align 8, !tbaa !23
  store ptr %6, ptr %14, align 8, !tbaa !23
  store ptr %7, ptr %15, align 8, !tbaa !27
  %17 = load ptr, ptr %9, align 8, !tbaa !27
  %18 = load ptr, ptr %10, align 8, !tbaa !27
  %19 = load i32, ptr %11, align 4, !tbaa !4
  call void @validateQubitSubregs(ptr noundef byval(%struct.Qureg) align 8 %0, ptr noundef %17, ptr noundef %18, i32 noundef %19, ptr noundef @__func__.applyMultiVarPhaseFunc)
  %20 = load ptr, ptr %10, align 8, !tbaa !27
  %21 = load i32, ptr %11, align 4, !tbaa !4
  %22 = load i32, ptr %12, align 4, !tbaa !4
  call void @validateMultiRegBitEncoding(ptr noundef %20, i32 noundef %21, i32 noundef %22, ptr noundef @__func__.applyMultiVarPhaseFunc)
  %23 = load ptr, ptr %10, align 8, !tbaa !27
  %24 = load i32, ptr %11, align 4, !tbaa !4
  %25 = load i32, ptr %12, align 4, !tbaa !4
  %26 = load ptr, ptr %14, align 8, !tbaa !23
  %27 = load ptr, ptr %15, align 8, !tbaa !27
  call void @validateMultiVarPhaseFuncTerms(ptr noundef %23, i32 noundef %24, i32 noundef %25, ptr noundef %26, ptr noundef %27, ptr noundef @__func__.applyMultiVarPhaseFunc)
  call void @llvm.lifetime.start.p0(i64 4, ptr %16) #7
  store i32 0, ptr %16, align 4, !tbaa !4
  %28 = load ptr, ptr %9, align 8, !tbaa !27
  %29 = load ptr, ptr %10, align 8, !tbaa !27
  %30 = load i32, ptr %11, align 4, !tbaa !4
  %31 = load i32, ptr %12, align 4, !tbaa !4
  %32 = load ptr, ptr %13, align 8, !tbaa !23
  %33 = load ptr, ptr %14, align 8, !tbaa !23
  %34 = load ptr, ptr %15, align 8, !tbaa !27
  %35 = load i32, ptr %16, align 4, !tbaa !4
  call void @statevec_applyMultiVarPhaseFuncOverrides(ptr noundef byval(%struct.Qureg) align 8 %0, ptr noundef %28, ptr noundef %29, i32 noundef %30, i32 noundef %31, ptr noundef %32, ptr noundef %33, ptr noundef %34, ptr noundef null, ptr noundef null, i32 noundef 0, i32 noundef %35)
  %36 = getelementptr inbounds nuw %struct.Qureg, ptr %0, i32 0, i32 0
  %37 = load i32, ptr %36, align 8, !tbaa !13
  %38 = icmp ne i32 %37, 0
  br i1 %38, label %39, label %59

39:                                               ; preds = %8
  store i32 1, ptr %16, align 4, !tbaa !4
  %40 = load ptr, ptr %9, align 8, !tbaa !27
  %41 = load ptr, ptr %10, align 8, !tbaa !27
  %42 = load i32, ptr %11, align 4, !tbaa !4
  %43 = getelementptr inbounds nuw %struct.Qureg, ptr %0, i32 0, i32 1
  %44 = load i32, ptr %43, align 4, !tbaa !18
  call void @shiftSubregIndices(ptr noundef %40, ptr noundef %41, i32 noundef %42, i32 noundef %44)
  %45 = load ptr, ptr %9, align 8, !tbaa !27
  %46 = load ptr, ptr %10, align 8, !tbaa !27
  %47 = load i32, ptr %11, align 4, !tbaa !4
  %48 = load i32, ptr %12, align 4, !tbaa !4
  %49 = load ptr, ptr %13, align 8, !tbaa !23
  %50 = load ptr, ptr %14, align 8, !tbaa !23
  %51 = load ptr, ptr %15, align 8, !tbaa !27
  %52 = load i32, ptr %16, align 4, !tbaa !4
  call void @statevec_applyMultiVarPhaseFuncOverrides(ptr noundef byval(%struct.Qureg) align 8 %0, ptr noundef %45, ptr noundef %46, i32 noundef %47, i32 noundef %48, ptr noundef %49, ptr noundef %50, ptr noundef %51, ptr noundef null, ptr noundef null, i32 noundef 0, i32 noundef %52)
  %53 = load ptr, ptr %9, align 8, !tbaa !27
  %54 = load ptr, ptr %10, align 8, !tbaa !27
  %55 = load i32, ptr %11, align 4, !tbaa !4
  %56 = getelementptr inbounds nuw %struct.Qureg, ptr %0, i32 0, i32 1
  %57 = load i32, ptr %56, align 4, !tbaa !18
  %58 = sub nsw i32 0, %57
  call void @shiftSubregIndices(ptr noundef %53, ptr noundef %54, i32 noundef %55, i32 noundef %58)
  br label %59

59:                                               ; preds = %39, %8
  %60 = load ptr, ptr %9, align 8, !tbaa !27
  %61 = load ptr, ptr %10, align 8, !tbaa !27
  %62 = load i32, ptr %11, align 4, !tbaa !4
  %63 = load i32, ptr %12, align 4, !tbaa !4
  %64 = load ptr, ptr %13, align 8, !tbaa !23
  %65 = load ptr, ptr %14, align 8, !tbaa !23
  %66 = load ptr, ptr %15, align 8, !tbaa !27
  call void @qasm_recordMultiVarPhaseFunc(ptr noundef byval(%struct.Qureg) align 8 %0, ptr noundef %60, ptr noundef %61, i32 noundef %62, i32 noundef %63, ptr noundef %64, ptr noundef %65, ptr noundef %66, ptr noundef null, ptr noundef null, i32 noundef 0)
  call void @llvm.lifetime.end.p0(i64 4, ptr %16) #7
  ret void
}